target datalayout = "e-m:e-p270:32:32-p271:32:32-p272:64:64-i64:64-i128:128-f80:128-n8:16:32:64-S128"
target triple = "x86_64-pc-linux-gnu"

%struct.SDL_Mouse = type { ptr, ptr, ptr, ptr, ptr, ptr, ptr, ptr, ptr, ptr, ptr, ptr, ptr, ptr, i8, float, float, ptr, float, float, float, float, float, float, float, float, double, double, i8, i8, i8, i8, i8, i8, i8, i8, i64, i8, float, i8, float, i8, i32, i32, i8, i8, i8, i8, i8, i8, i8, i8, i8, ptr, i32, ptr, ptr, ptr, ptr, i8, ptr }
%struct.SDL_Rect = type { i32, i32, i32, i32 }
%struct.SDL_Window = type { i32, ptr, ptr, i32, i32, i32, i32, i32, i32, i32, i32, float, float, i32, i32, i64, i64, float, i8, i8, i32, i32, %struct.SDL_Rect, %struct.SDL_Rect, %struct.SDL_Rect, i8, i8, i8, %struct.SDL_DisplayMode, %struct.SDL_DisplayMode, %struct.SDL_HDROutputProperties, float, ptr, i8, i8, i8, i8, i8, i8, i8, i8, i8, i32, i32, i32, i32, %struct.SDL_Rect, i32, i8, %struct.SDL_Rect, i32, %struct.SDL_Rect, ptr, ptr, i32, float, i32, i32, ptr, ptr, ptr, ptr, ptr, ptr, ptr, ptr, ptr }
%struct.SDL_DisplayMode = type { i32, i32, i32, i32, float, float, i32, i32, ptr }
%struct.SDL_HDROutputProperties = type { float, float }

; Function Attrs: nounwind uwtable
define internal void @ConstrainMousePosition(ptr noundef %0, ptr noundef %1, ptr noundef %2, ptr noundef %3) #0 {
  %5 = alloca ptr, align 8
  %6 = alloca ptr, align 8
  %7 = alloca ptr, align 8
  %8 = alloca ptr, align 8
  %9 = alloca i32, align 4
  %10 = alloca i32, align 4
  %11 = alloca i32, align 4
  %12 = alloca i32, align 4
  %13 = alloca ptr, align 8
  %14 = alloca %struct.SDL_Rect, align 4
  %15 = alloca %struct.SDL_Rect, align 4
  store ptr %0, ptr %5, align 8
  store ptr %1, ptr %6, align 8
  store ptr %2, ptr %7, align 8
  store ptr %3, ptr %8, align 8
  %16 = load ptr, ptr %6, align 8
  %17 = icmp ne ptr %16, null
  br i1 %17, label %18, label %133

18:                                               ; preds = %4
  %19 = load ptr, ptr %6, align 8
  %20 = getelementptr inbounds nuw %struct.SDL_Window, ptr %19, i32 0, i32 15
  %21 = load i64, ptr %20, align 8
  %22 = and i64 %21, 16384
  %23 = icmp ne i64 %22, 0
  br i1 %23, label %133, label %24

24:                                               ; preds = %18
  call void @llvm.lifetime.start.p0(i64 4, ptr %9) #7
  store i32 0, ptr %9, align 4
  call void @llvm.lifetime.start.p0(i64 4, ptr %10) #7
  %25 = load ptr, ptr %6, align 8
  %26 = getelementptr inbounds nuw %struct.SDL_Window, ptr %25, i32 0, i32 5
  %27 = load i32, ptr %26, align 8
  %28 = sub nsw i32 %27, 1
  store i32 %28, ptr %10, align 4
  call void @llvm.lifetime.start.p0(i64 4, ptr %11) #7
  store i32 0, ptr %11, align 4
  call void @llvm.lifetime.start.p0(i64 4, ptr %12) #7
  %29 = load ptr, ptr %6, align 8
  %30 = getelementptr inbounds nuw %struct.SDL_Window, ptr %29, i32 0, i32 6
  %31 = load i32, ptr %30, align 4
  %32 = sub nsw i32 %31, 1
  store i32 %32, ptr %12, align 4
  call void @llvm.lifetime.start.p0(i64 8, ptr %13) #7
  %33 = load ptr, ptr %6, align 8
  %34 = call ptr @SDL_GetWindowMouseRect_REAL(ptr noundef %33)
  store ptr %34, ptr %13, align 8
  %35 = load ptr, ptr %13, align 8
  %36 = icmp ne ptr %35, null
  br i1 %36, label %37, label %64

37:                                               ; preds = %24
  call void @llvm.lifetime.start.p0(i64 16, ptr %14) #7
  call void @llvm.lifetime.start.p0(i64 16, ptr %15) #7
  %38 = getelementptr inbounds nuw %struct.SDL_Rect, ptr %14, i32 0, i32 0
  store i32 0, ptr %38, align 4
  %39 = getelementptr inbounds nuw %struct.SDL_Rect, ptr %14, i32 0, i32 1
  store i32 0, ptr %39, align 4
  %40 = load i32, ptr %10, align 4
  %41 = add nsw i32 %40, 1
  %42 = getelementptr inbounds nuw %struct.SDL_Rect, ptr %14, i32 0, i32 2
  store i32 %41, ptr %42, align 4
  %43 = load i32, ptr %12, align 4
  %44 = add nsw i32 %43, 1
  %45 = getelementptr inbounds nuw %struct.SDL_Rect, ptr %14, i32 0, i32 3
  store i32 %44, ptr %45, align 4
  %46 = load ptr, ptr %13, align 8
  %47 = call zeroext i1 @SDL_GetRectIntersection_REAL(ptr noundef %46, ptr noundef %14, ptr noundef %15)
  br i1 %47, label %48, label %63

48:                                               ; preds = %37
  %49 = getelementptr inbounds nuw %struct.SDL_Rect, ptr %15, i32 0, i32 0
  %50 = load i32, ptr %49, align 4
  store i32 %50, ptr %9, align 4
  %51 = getelementptr inbounds nuw %struct.SDL_Rect, ptr %15, i32 0, i32 1
  %52 = load i32, ptr %51, align 4
  store i32 %52, ptr %11, align 4
  %53 = load i32, ptr %9, align 4
  %54 = getelementptr inbounds nuw %struct.SDL_Rect, ptr %15, i32 0, i32 2
  %55 = load i32, ptr %54, align 4
  %56 = add nsw i32 %53, %55
  %57 = sub nsw i32 %56, 1
  store i32 %57, ptr %10, align 4
  %58 = load i32, ptr %11, align 4
  %59 = getelementptr inbounds nuw %struct.SDL_Rect, ptr %15, i32 0, i32 3
  %60 = load i32, ptr %59, align 4
  %61 = add nsw i32 %58, %60
  %62 = sub nsw i32 %61, 1
  store i32 %62, ptr %12, align 4
  br label %63

63:                                               ; preds = %48, %37
  call void @llvm.lifetime.end.p0(i64 16, ptr %15) #7
  call void @llvm.lifetime.end.p0(i64 16, ptr %14) #7
  br label %64

64:                                               ; preds = %63, %24
  %65 = load ptr, ptr %7, align 8
  %66 = load float, ptr %65, align 4
  %67 = load i32, ptr %10, align 4
  %68 = add nsw i32 %67, 1
  %69 = sitofp i32 %68 to float
  %70 = fcmp oge float %66, %69
  br i1 %70, label %71, label %88

71:                                               ; preds = %64
  %72 = load i32, ptr %10, align 4
  %73 = sitofp i32 %72 to float
  %74 = load ptr, ptr %5, align 8
  %75 = getelementptr inbounds nuw %struct.SDL_Mouse, ptr %74, i32 0, i32 22
  %76 = load float, ptr %75, align 8
  %77 = fcmp ogt float %73, %76
  br i1 %77, label %78, label %81

78:                                               ; preds = %71
  %79 = load i32, ptr %10, align 4
  %80 = sitofp i32 %79 to float
  br label %85

81:                                               ; preds = %71
  %82 = load ptr, ptr %5, align 8
  %83 = getelementptr inbounds nuw %struct.SDL_Mouse, ptr %82, i32 0, i32 22
  %84 = load float, ptr %83, align 8
  br label %85

85:                                               ; preds = %81, %78
  %86 = phi float [ %80, %78 ], [ %84, %81 ]
  %87 = load ptr, ptr %7, align 8
  store float %86, ptr %87, align 4
  br label %88

88:                                               ; preds = %85, %64
  %89 = load ptr, ptr %7, align 8
  %90 = load float, ptr %89, align 4
  %91 = load i32, ptr %9, align 4
  %92 = sitofp i32 %91 to float
  %93 = fcmp olt float %90, %92
  br i1 %93, label %94, label %98

94:                                               ; preds = %88
  %95 = load i32, ptr %9, align 4
  %96 = sitofp i32 %95 to float
  %97 = load ptr, ptr %7, align 8
  store float %96, ptr %97, align 4
  br label %98

98:                                               ; preds = %94, %88
  %99 = load ptr, ptr %8, align 8
  %100 = load float, ptr %99, align 4
  %101 = load i32, ptr %12, align 4
  %102 = add nsw i32 %101, 1
  %103 = sitofp i32 %102 to float
  %104 = fcmp oge float %100, %103
  br i1 %104, label %105, label %122

105:                                              ; preds = %98
  %106 = load i32, ptr %12, align 4
  %107 = sitofp i32 %106 to float
  %108 = load ptr, ptr %5, align 8
  %109 = getelementptr inbounds nuw %struct.SDL_Mouse, ptr %108, i32 0, i32 23
  %110 = load float, ptr %109, align 4
  %111 = fcmp ogt float %107, %110
  br i1 %111, label %112, label %115

112:                                              ; preds = %105
  %113 = load i32, ptr %12, align 4
  %114 = sitofp i32 %113 to float
  br label %119

115:                                              ; preds = %105
  %116 = load ptr, ptr %5, align 8
  %117 = getelementptr inbounds nuw %struct.SDL_Mouse, ptr %116, i32 0, i32 23
  %118 = load float, ptr %117, align 4
  br label %119

119:                                              ; preds = %115, %112
  %120 = phi float [ %114, %112 ], [ %118, %115 ]
  %121 = load ptr, ptr %8, align 8
  store float %120, ptr %121, align 4
  br label %122

122:                                              ; preds = %119, %98
  %123 = load ptr, ptr %8, align 8
  %124 = load float, ptr %123, align 4
  %125 = load i32, ptr %11, align 4
  %126 = sitofp i32 %125 to float
  %127 = fcmp olt float %124, %126
  br i1 %127, label %128, label %132

128:                                              ; preds = %122
  %129 = load i32, ptr %11, align 4
  %130 = sitofp i32 %129 to float
  %131 = load ptr, ptr %8, align 8
  store float %130, ptr %131, align 4
  br label %132

132:                                              ; preds = %128, %122
  call void @llvm.lifetime.end.p0(i64 8, ptr %13) #7
  call void @llvm.lifetime.end.p0(i64 4, ptr %12) #7
  call void @llvm.lifetime.end.p0(i64 4, ptr %11) #7
  call void @llvm.lifetime.end.p0(i64 4, ptr %10) #7
  call void @llvm.lifetime.end.p0(i64 4, ptr %9) #7
  br label %133

133:                                              ; preds = %132, %18, %4
  ret void
}