; Function Attrs: nounwind uwtable
define internal fastcc void @ConstrainMousePosition(ptr noundef %0, ptr noundef captures(none) %1, ptr noundef captures(none) %2) unnamed_addr #0 {
  %4 = alloca %struct.SDL_Rect, align 4
  %5 = alloca %struct.SDL_Rect, align 4
  %.not = icmp eq ptr %0, null
  br i1 %.not, label %64, label %6

6:                                                ; preds = %3
  %7 = getelementptr inbounds nuw i8, ptr %0, i64 72
  %8 = load i64, ptr %7, align 8
  %9 = and i64 %8, 16384
  %.not46 = icmp eq i64 %9, 0
  br i1 %.not46, label %10, label %64

10:                                               ; preds = %6
  %11 = getelementptr inbounds nuw i8, ptr %0, i64 32
  %12 = load i32, ptr %11, align 8
  %13 = add nsw i32 %12, -1
  %14 = getelementptr inbounds nuw i8, ptr %0, i64 36
  %15 = load i32, ptr %14, align 4
  %16 = add nsw i32 %15, -1
  %17 = tail call ptr @SDL_GetWindowMouseRect_REAL(ptr noundef nonnull %0) #13
  %.not47 = icmp eq ptr %17, null
  br i1 %.not47, label %38, label %18

18:                                               ; preds = %10
  call void @llvm.lifetime.start.p0(i64 16, ptr nonnull %4) #13
  call void @llvm.lifetime.start.p0(i64 16, ptr nonnull %5) #13
  store i32 0, ptr %4, align 4
  %19 = getelementptr inbounds nuw i8, ptr %4, i64 4
  store i32 0, ptr %19, align 4
  %20 = getelementptr inbounds nuw i8, ptr %4, i64 8
  store i32 %12, ptr %20, align 4
  %21 = getelementptr inbounds nuw i8, ptr %4, i64 12
  store i32 %15, ptr %21, align 4
  %22 = call zeroext i1 @SDL_GetRectIntersection_REAL(ptr noundef nonnull %17, ptr noundef nonnull %4, ptr noundef nonnull %5) #13
  br i1 %22, label %23, label %37

23:                                               ; preds = %18
  %24 = load i32, ptr %5, align 4
  %25 = getelementptr inbounds nuw i8, ptr %5, i64 4
  %26 = load i32, ptr %25, align 4
  %27 = getelementptr inbounds nuw i8, ptr %5, i64 8
  %28 = load i32, ptr %27, align 4
  %29 = add i32 %24, -1
  %30 = add i32 %29, %28
  %31 = getelementptr inbounds nuw i8, ptr %5, i64 12
  %32 = load i32, ptr %31, align 4
  %33 = add i32 %26, -1
  %34 = add i32 %33, %32
  %35 = sitofp i32 %24 to float
  %36 = sitofp i32 %26 to float
  br label %37

37:                                               ; preds = %23, %18
  %.137 = phi i32 [ %30, %23 ], [ %13, %18 ]
  %.135 = phi float [ %36, %23 ], [ 0.000000e+00, %18 ]
  %.133 = phi i32 [ %34, %23 ], [ %16, %18 ]
  %.1 = phi float [ %35, %23 ], [ 0.000000e+00, %18 ]
  call void @llvm.lifetime.end.p0(i64 16, ptr nonnull %5) #13
  call void @llvm.lifetime.end.p0(i64 16, ptr nonnull %4) #13
  br label %38

38:                                               ; preds = %37, %10
  %.036 = phi i32 [ %.137, %37 ], [ %13, %10 ]
  %.034 = phi float [ %.135, %37 ], [ 0.000000e+00, %10 ]
  %.032 = phi i32 [ %.133, %37 ], [ %16, %10 ]
  %.0 = phi float [ %.1, %37 ], [ 0.000000e+00, %10 ]
  %39 = load float, ptr %1, align 4
  %40 = add nsw i32 %.036, 1
  %41 = sitofp i32 %40 to float
  %42 = fcmp ult float %39, %41
  br i1 %42, label %47, label %43

43:                                               ; preds = %38
  %44 = sitofp i32 %.036 to float
  %45 = load float, ptr getelementptr inbounds nuw (i8, ptr @SDL_mouse, i64 152), align 8
  %46 = fcmp olt float %45, %44
  %. = select i1 %46, float %44, float %45
  store float %., ptr %1, align 4
  br label %47

47:                                               ; preds = %43, %38
  %48 = phi float [ %., %43 ], [ %39, %38 ]
  %49 = fcmp olt float %48, %.0
  br i1 %49, label %50, label %51

50:                                               ; preds = %47
  store float %.0, ptr %1, align 4
  br label %51

51:                                               ; preds = %50, %47
  %52 = load float, ptr %2, align 4
  %53 = add nsw i32 %.032, 1
  %54 = sitofp i32 %53 to float
  %55 = fcmp ult float %52, %54
  br i1 %55, label %60, label %56

56:                                               ; preds = %51
  %57 = sitofp i32 %.032 to float
  %58 = load float, ptr getelementptr inbounds nuw (i8, ptr @SDL_mouse, i64 156), align 4
  %59 = fcmp olt float %58, %57
  %.48 = select i1 %59, float %57, float %58
  store float %.48, ptr %2, align 4
  br label %60

60:                                               ; preds = %56, %51
  %61 = phi float [ %.48, %56 ], [ %52, %51 ]
  %62 = fcmp olt float %61, %.034
  br i1 %62, label %63, label %64

63:                                               ; preds = %60
  store float %.034, ptr %2, align 4
  br label %64

64:                                               ; preds = %60, %63, %6, %3
  ret void
}